; Function Attrs: null_pointer_is_valid sspstrong uwtable
define hidden i32 @cose_param_key_hash(ptr noundef readonly captures(none) %0) #0 {
  %2 = load ptr, ptr %0, align 8
  %.not = icmp eq ptr %2, null
  br i1 %.not, label %5, label %3

3:                                                ; preds = %1
  %4 = tail call i32 @g_int64_hash(ptr noundef nonnull %2)
  br label %5

5:                                                ; preds = %3, %1
  %.0 = phi i32 [ %4, %3 ], [ 0, %1 ]
  %6 = getelementptr inbounds nuw i8, ptr %0, i64 8
  %7 = load ptr, ptr %6, align 8
  %.not9 = icmp eq ptr %7, null
  br i1 %.not9, label %11, label %8

8:                                                ; preds = %5
  %9 = tail call i32 @g_variant_hash(ptr noundef nonnull %7)
  %10 = xor i32 %9, %.0
  br label %11

11:                                               ; preds = %8, %5
  %.1 = phi i32 [ %10, %8 ], [ %.0, %5 ]
  ret i32 %.1
}